target datalayout = "e-m:e-p270:32:32-p271:32:32-p272:64:64-i64:64-i128:128-f80:128-n8:16:32:64-S128"
target triple = "x86_64-pc-linux-gnu"

@.str.4 = private unnamed_addr constant [18 x i8] c"Allocation failed\00", align 1

; Function Attrs: mustprogress nounwind uwtable
define linkonce_odr hidden noundef nonnull ptr @_ZN4llvm12safe_reallocEPvm(ptr noundef %0, i64 noundef %1) #0 comdat {
  %3 = alloca ptr, align 8
  %4 = alloca ptr, align 8
  %5 = alloca i64, align 8
  %6 = alloca ptr, align 8
  store ptr %0, ptr %4, align 8
  store i64 %1, ptr %5, align 8
  %7 = load ptr, ptr %4, align 8
  %8 = load i64, ptr %5, align 8
  %9 = call ptr @realloc(ptr noundef %7, i64 noundef %8) #15
  store ptr %9, ptr %6, align 8
  %10 = load ptr, ptr %6, align 8
  %11 = icmp eq ptr %10, null
  br i1 %11, label %12, label %18

12:                                               ; preds = %2
  %13 = load i64, ptr %5, align 8
  %14 = icmp eq i64 %13, 0
  br i1 %14, label %15, label %17

15:                                               ; preds = %12
  %16 = call noundef nonnull ptr @_ZN4llvm11safe_mallocEm(i64 noundef 1)
  store ptr %16, ptr %3, align 8
  br label %20

17:                                               ; preds = %12
  call void @_ZN4llvm22report_bad_alloc_errorEPKcb(ptr noundef @.str.4, i1 noundef zeroext true) #14
  unreachable

18:                                               ; preds = %2
  %19 = load ptr, ptr %6, align 8
  store ptr %19, ptr %3, align 8
  br label %20

20:                                               ; preds = %18, %15
  %21 = load ptr, ptr %3, align 8
  ret ptr %21
}

; Function Attrs: mustprogress nounwind uwtable
define linkonce_odr hidden noundef nonnull ptr @_ZN4llvm11safe_mallocEm(i64 noundef %0) #0 comdat {
  %2 = alloca ptr, align 8
  %3 = alloca i64, align 8
  %4 = alloca ptr, align 8
  store i64 %0, ptr %3, align 8
  %5 = load i64, ptr %3, align 8
  %6 = call noalias ptr @malloc(i64 noundef %5) #13
  store ptr %6, ptr %4, align 8
  %7 = load ptr, ptr %4, align 8
  %8 = icmp eq ptr %7, null
  br i1 %8, label %9, label %15

9:                                                ; preds = %1
  %10 = load i64, ptr %3, align 8
  %11 = icmp eq i64 %10, 0
  br i1 %11, label %12, label %14

12:                                               ; preds = %9
  %13 = call noundef nonnull ptr @_ZN4llvm11safe_mallocEm(i64 noundef 1)
  store ptr %13, ptr %2, align 8
  br label %17

14:                                               ; preds = %9
  call void @_ZN4llvm22report_bad_alloc_errorEPKcb(ptr noundef @.str.4, i1 noundef zeroext true) #14
  unreachable

15:                                               ; preds = %1
  %16 = load ptr, ptr %4, align 8
  store ptr %16, ptr %2, align 8
  br label %17

17:                                               ; preds = %15, %12
  %18 = load ptr, ptr %2, align 8
  ret ptr %18
}

; Function Attrs: mustprogress nounwind uwtable
define linkonce_odr noundef nonnull align 4 dereferenceable(4) ptr @_ZSt3maxIjERKT_S2_S2_(ptr noundef nonnull align 4 dereferenceable(4) %0, ptr noundef nonnull align 4 dereferenceable(4) %1) #0 comdat {
  %3 = alloca ptr, align 8
  %4 = alloca ptr, align 8
  %5 = alloca ptr, align 8
  store ptr %0, ptr %4, align 8
  store ptr %1, ptr %5, align 8
  %6 = load ptr, ptr %4, align 8
  %7 = load i32, ptr %6, align 4
  %8 = load ptr, ptr %5, align 8
  %9 = load i32, ptr %8, align 4
  %10 = icmp ult i32 %7, %9
  br i1 %10, label %11, label %13

11:                                               ; preds = %2
  %12 = load ptr, ptr %5, align 8
  store ptr %12, ptr %3, align 8
  br label %15

13:                                               ; preds = %2
  %14 = load ptr, ptr %4, align 8
  store ptr %14, ptr %3, align 8
  br label %15

15:                                               ; preds = %13, %11
  %16 = load ptr, ptr %3, align 8
  ret ptr %16
}

; Function Attrs: mustprogress nounwind uwtable
define internal void @_ZL6AppendPcS_RS_RjS1_(ptr noundef %0, ptr noundef %1, ptr noundef nonnull align 8 dereferenceable(8) %2, ptr noundef nonnull align 4 dereferenceable(4) %3, ptr noundef nonnull align 4 dereferenceable(4) %4) #0 {
  %6 = alloca ptr, align 8
  %7 = alloca ptr, align 8
  %8 = alloca ptr, align 8
  %9 = alloca ptr, align 8
  %10 = alloca ptr, align 8
  %11 = alloca i32, align 4
  %12 = alloca i32, align 4
  %13 = alloca i32, align 4
  %14 = alloca ptr, align 8
  store ptr %0, ptr %6, align 8
  store ptr %1, ptr %7, align 8
  store ptr %2, ptr %8, align 8
  store ptr %3, ptr %9, align 8
  store ptr %4, ptr %10, align 8
  %15 = load ptr, ptr %6, align 8
  %16 = load ptr, ptr %7, align 8
  %17 = icmp eq ptr %15, %16
  br i1 %17, label %18, label %19

18:                                               ; preds = %5
  br label %111

19:                                               ; preds = %5
  %20 = load ptr, ptr %9, align 8
  %21 = load i32, ptr %20, align 4
  %22 = zext i32 %21 to i64
  %23 = load ptr, ptr %7, align 8
  %24 = load ptr, ptr %6, align 8
  %25 = ptrtoint ptr %23 to i64
  %26 = ptrtoint ptr %24 to i64
  %27 = sub i64 %25, %26
  %28 = add nsw i64 %22, %27
  %29 = load ptr, ptr %10, align 8
  %30 = load i32, ptr %29, align 4
  %31 = zext i32 %30 to i64
  %32 = icmp sgt i64 %28, %31
  br i1 %32, label %33, label %88

33:                                               ; preds = %19
  %34 = load ptr, ptr %10, align 8
  %35 = load i32, ptr %34, align 4
  %36 = icmp ne i32 %35, 0
  br i1 %36, label %37, label %42

37:                                               ; preds = %33
  %38 = load ptr, ptr %10, align 8
  %39 = load i32, ptr %38, align 4
  %40 = mul i32 %39, 2
  %41 = zext i32 %40 to i64
  br label %43

42:                                               ; preds = %33
  br label %43

43:                                               ; preds = %42, %37
  %44 = phi i64 [ %41, %37 ], [ 16, %42 ]
  %45 = trunc i64 %44 to i32
  store i32 %45, ptr %12, align 4
  %46 = load ptr, ptr %9, align 8
  %47 = load i32, ptr %46, align 4
  %48 = zext i32 %47 to i64
  %49 = load ptr, ptr %7, align 8
  %50 = load ptr, ptr %6, align 8
  %51 = ptrtoint ptr %49 to i64
  %52 = ptrtoint ptr %50 to i64
  %53 = sub i64 %51, %52
  %54 = add nsw i64 %48, %53
  %55 = trunc i64 %54 to i32
  store i32 %55, ptr %13, align 4
  %56 = call noundef nonnull align 4 dereferenceable(4) ptr @_ZSt3maxIjERKT_S2_S2_(ptr noundef nonnull align 4 dereferenceable(4) %12, ptr noundef nonnull align 4 dereferenceable(4) %13)
  %57 = load i32, ptr %56, align 4
  store i32 %57, ptr %11, align 4
  %58 = load ptr, ptr %10, align 8
  %59 = load i32, ptr %58, align 4
  %60 = icmp ne i32 %59, 0
  br i1 %60, label %78, label %61

61:                                               ; preds = %43
  %62 = load i32, ptr %11, align 4
  %63 = zext i32 %62 to i64
  %64 = call noundef nonnull ptr @_ZN4llvm11safe_mallocEm(i64 noundef %63)
  store ptr %64, ptr %14, align 8
  %65 = load ptr, ptr %8, align 8
  %66 = load ptr, ptr %65, align 8
  %67 = icmp ne ptr %66, null
  br i1 %67, label %68, label %75

68:                                               ; preds = %61
  %69 = load ptr, ptr %14, align 8
  %70 = load ptr, ptr %8, align 8
  %71 = load ptr, ptr %70, align 8
  %72 = load ptr, ptr %9, align 8
  %73 = load i32, ptr %72, align 4
  %74 = zext i32 %73 to i64
  call void @llvm.memcpy.p0.p0.i64(ptr align 1 %69, ptr align 1 %71, i64 %74, i1 false)
  br label %75

75:                                               ; preds = %68, %61
  %76 = load ptr, ptr %14, align 8
  %77 = load ptr, ptr %8, align 8
  store ptr %76, ptr %77, align 8
  br label %85

78:                                               ; preds = %43
  %79 = load ptr, ptr %8, align 8
  %80 = load ptr, ptr %79, align 8
  %81 = load i32, ptr %11, align 4
  %82 = zext i32 %81 to i64
  %83 = call noundef nonnull ptr @_ZN4llvm12safe_reallocEPvm(ptr noundef %80, i64 noundef %82)
  %84 = load ptr, ptr %8, align 8
  store ptr %83, ptr %84, align 8
  br label %85

85:                                               ; preds = %78, %75
  %86 = load i32, ptr %11, align 4
  %87 = load ptr, ptr %10, align 8
  store i32 %86, ptr %87, align 4
  br label %88

88:                                               ; preds = %85, %19
  %89 = load ptr, ptr %8, align 8
  %90 = load ptr, ptr %89, align 8
  %91 = load ptr, ptr %9, align 8
  %92 = load i32, ptr %91, align 4
  %93 = zext i32 %92 to i64
  %94 = getelementptr inbounds i8, ptr %90, i64 %93
  %95 = load ptr, ptr %6, align 8
  %96 = load ptr, ptr %7, align 8
  %97 = load ptr, ptr %6, align 8
  %98 = ptrtoint ptr %96 to i64
  %99 = ptrtoint ptr %97 to i64
  %100 = sub i64 %98, %99
  call void @llvm.memcpy.p0.p0.i64(ptr align 1 %94, ptr align 1 %95, i64 %100, i1 false)
  %101 = load ptr, ptr %7, align 8
  %102 = load ptr, ptr %6, align 8
  %103 = ptrtoint ptr %101 to i64
  %104 = ptrtoint ptr %102 to i64
  %105 = sub i64 %103, %104
  %106 = load ptr, ptr %9, align 8
  %107 = load i32, ptr %106, align 4
  %108 = zext i32 %107 to i64
  %109 = add nsw i64 %108, %105
  %110 = trunc i64 %109 to i32
  store i32 %110, ptr %106, align 4
  br label %111

111:                                              ; preds = %88, %18
  ret void
}