; Function Attrs: mustprogress nounwind uwtable
define internal fastcc void @_ZL6AppendPcS_RS_RjS1_(ptr noundef %0, ptr noundef %1, ptr nocapture noundef nonnull align 8 dereferenceable(8) %2, ptr nocapture noundef nonnull align 4 dereferenceable(4) %3, ptr nocapture noundef nonnull align 4 dereferenceable(4) %4) unnamed_addr #0 {
  %6 = icmp eq ptr %0, %1
  br i1 %6, label %51, label %7

7:                                                ; preds = %5
  %8 = load i32, ptr %3, align 4
  %9 = zext i32 %8 to i64
  %10 = ptrtoint ptr %1 to i64
  %11 = ptrtoint ptr %0 to i64
  %12 = sub i64 %10, %11
  %13 = add nsw i64 %12, %9
  %14 = load i32, ptr %4, align 4
  %15 = zext i32 %14 to i64
  %16 = icmp sgt i64 %13, %15
  br i1 %16, label %17, label %._crit_edge

._crit_edge:                                      ; preds = %7
  %.pre41 = trunc i64 %12 to i32
  br label %46

17:                                               ; preds = %7
  %.not = icmp eq i32 %14, 0
  %18 = shl i32 %14, 1
  %spec.select = select i1 %.not, i32 16, i32 %18
  %19 = trunc i64 %12 to i32
  %20 = add i32 %8, %19
  %.sroa.speculated = tail call i32 @llvm.umax.i32(i32 %spec.select, i32 %20)
  br i1 %.not, label %21, label %34

21:                                               ; preds = %17
  %22 = zext i32 %.sroa.speculated to i64
  %23 = tail call noalias ptr @malloc(i64 noundef %22) #18
  %24 = icmp eq ptr %23, null
  br i1 %24, label %25, label %_ZN4llvm11safe_mallocEm.exit

25:                                               ; preds = %21
  %26 = icmp eq i32 %.sroa.speculated, 0
  br i1 %26, label %27, label %31

27:                                               ; preds = %25
  %28 = tail call noalias dereferenceable_or_null(1) ptr @malloc(i64 noundef 1) #18
  %29 = icmp eq ptr %28, null
  br i1 %29, label %30, label %_ZN4llvm11safe_mallocEm.exit

30:                                               ; preds = %27
  tail call void @_ZN4llvm22report_bad_alloc_errorEPKcb(ptr noundef nonnull @.str.4, i1 noundef zeroext true) #19
  unreachable

31:                                               ; preds = %25
  tail call void @_ZN4llvm22report_bad_alloc_errorEPKcb(ptr noundef nonnull @.str.4, i1 noundef zeroext true) #19
  unreachable

_ZN4llvm11safe_mallocEm.exit:                     ; preds = %21, %27
  %.0.i = phi ptr [ %23, %21 ], [ %28, %27 ]
  %32 = load ptr, ptr %2, align 8
  %.not35 = icmp eq ptr %32, null
  br i1 %.not35, label %_ZN4llvm12safe_reallocEPvm.exit, label %33

33:                                               ; preds = %_ZN4llvm11safe_mallocEm.exit
  tail call void @llvm.memcpy.p0.p0.i64(ptr nonnull align 1 %.0.i, ptr nonnull align 1 %32, i64 %9, i1 false)
  br label %_ZN4llvm12safe_reallocEPvm.exit

34:                                               ; preds = %17
  %35 = load ptr, ptr %2, align 8
  %36 = zext i32 %.sroa.speculated to i64
  %37 = tail call ptr @realloc(ptr noundef %35, i64 noundef %36) #20
  %38 = icmp eq ptr %37, null
  br i1 %38, label %39, label %_ZN4llvm12safe_reallocEPvm.exit

39:                                               ; preds = %34
  %40 = icmp eq i32 %.sroa.speculated, 0
  br i1 %40, label %41, label %45

41:                                               ; preds = %39
  %42 = tail call noalias dereferenceable_or_null(1) ptr @malloc(i64 noundef 1) #18
  %43 = icmp eq ptr %42, null
  br i1 %43, label %44, label %_ZN4llvm12safe_reallocEPvm.exit

44:                                               ; preds = %41
  tail call void @_ZN4llvm22report_bad_alloc_errorEPKcb(ptr noundef nonnull @.str.4, i1 noundef zeroext true) #19
  unreachable

45:                                               ; preds = %39
  tail call void @_ZN4llvm22report_bad_alloc_errorEPKcb(ptr noundef nonnull @.str.4, i1 noundef zeroext true) #19
  unreachable

_ZN4llvm12safe_reallocEPvm.exit:                  ; preds = %41, %34, %_ZN4llvm11safe_mallocEm.exit, %33
  %storemerge = phi ptr [ %.0.i, %33 ], [ %.0.i, %_ZN4llvm11safe_mallocEm.exit ], [ %37, %34 ], [ %42, %41 ]
  store ptr %storemerge, ptr %2, align 8
  store i32 %.sroa.speculated, ptr %4, align 4
  %.pre = load i32, ptr %3, align 4
  %.pre40 = zext i32 %.pre to i64
  br label %46

46:                                               ; preds = %._crit_edge, %_ZN4llvm12safe_reallocEPvm.exit
  %.pre-phi42 = phi i32 [ %.pre41, %._crit_edge ], [ %19, %_ZN4llvm12safe_reallocEPvm.exit ]
  %.pre-phi = phi i64 [ %9, %._crit_edge ], [ %.pre40, %_ZN4llvm12safe_reallocEPvm.exit ]
  %47 = load ptr, ptr %2, align 8
  %48 = getelementptr inbounds i8, ptr %47, i64 %.pre-phi
  tail call void @llvm.memcpy.p0.p0.i64(ptr align 1 %48, ptr align 1 %0, i64 %12, i1 false)
  %49 = load i32, ptr %3, align 4
  %50 = add i32 %49, %.pre-phi42
  store i32 %50, ptr %3, align 4
  br label %51

51:                                               ; preds = %5, %46
  ret void
}